target datalayout = "e-m:e-p270:32:32-p271:32:32-p272:64:64-i64:64-i128:128-f80:128-n8:16:32:64-S128"
target triple = "x86_64-pc-linux-gnu"

%"struct.std::atomic" = type { %"struct.std::__atomic_base" }
%"struct.std::__atomic_base" = type { i32 }
%"struct.base::PersistentMemoryAllocator::BlockHeader" = type { i32, i32, %"struct.std::atomic", %"struct.std::atomic" }
%"class.base::PersistentMemoryAllocator" = type { ptr, ptr, i32, i32, i8, %"struct.std::atomic.0", ptr, ptr }
%"struct.std::atomic.0" = type { %"struct.std::__atomic_base.1" }
%"struct.std::__atomic_base.1" = type { i8 }
%"struct.base::PersistentMemoryAllocator::SharedMetadata" = type { i32, i32, i32, i32, i64, i32, %"struct.std::atomic", %"struct.std::atomic", %"struct.std::atomic", %"struct.base::PersistentMemoryAllocator::BlockHeader" }
%"struct.base::PersistentMemoryAllocator::MemoryInfo" = type { i64, i64 }

; Function Attrs: mustprogress nounwind uwtable
define linkonce_odr noundef i32 @_ZStanSt12memory_orderSt23__memory_order_modifier(i32 noundef %0, i32 noundef %1) #0 comdat {
  %3 = alloca i32, align 4
  %4 = alloca i32, align 4
  store i32 %0, ptr %3, align 4, !tbaa !36
  store i32 %1, ptr %4, align 4, !tbaa !123
  %5 = load i32, ptr %3, align 4, !tbaa !36
  %6 = load i32, ptr %4, align 4, !tbaa !123
  %7 = and i32 %5, %6
  ret i32 %7
}

; Function Attrs: inlinehint mustprogress nounwind uwtable
define linkonce_odr noundef nonnull align 4 dereferenceable(4) ptr @_ZSt3maxIjERKT_S2_S2_(ptr noundef nonnull align 4 dereferenceable(4) %0, ptr noundef nonnull align 4 dereferenceable(4) %1) #4 comdat {
  %3 = alloca ptr, align 8
  %4 = alloca ptr, align 8
  %5 = alloca ptr, align 8
  store ptr %0, ptr %4, align 8, !tbaa !38
  store ptr %1, ptr %5, align 8, !tbaa !38
  %6 = load ptr, ptr %4, align 8, !tbaa !38
  %7 = load i32, ptr %6, align 4, !tbaa !17
  %8 = load ptr, ptr %5, align 8, !tbaa !38
  %9 = load i32, ptr %8, align 4, !tbaa !17
  %10 = icmp ult i32 %7, %9
  br i1 %10, label %11, label %13

11:                                               ; preds = %2
  %12 = load ptr, ptr %5, align 8, !tbaa !38
  store ptr %12, ptr %3, align 8
  br label %15

13:                                               ; preds = %2
  %14 = load ptr, ptr %4, align 8, !tbaa !38
  store ptr %14, ptr %3, align 8
  br label %15

15:                                               ; preds = %13, %11
  %16 = load ptr, ptr %3, align 8
  ret ptr %16
}

; Function Attrs: alwaysinline mustprogress nounwind uwtable
define linkonce_odr noundef i32 @_ZNVKSt13__atomic_baseIjE4loadESt12memory_order(ptr noundef nonnull align 4 dereferenceable(4) %0, i32 noundef %1) #3 comdat align 2 {
  %3 = alloca ptr, align 8
  %4 = alloca i32, align 4
  %5 = alloca i32, align 4
  %6 = alloca i32, align 4
  store ptr %0, ptr %3, align 8, !tbaa !34
  store i32 %1, ptr %4, align 4, !tbaa !36
  %7 = load ptr, ptr %3, align 8
  call void @llvm.lifetime.start.p0(i64 4, ptr %5) #12
  %8 = load i32, ptr %4, align 4, !tbaa !36
  %9 = call noundef i32 @_ZStanSt12memory_orderSt23__memory_order_modifier(i32 noundef %8, i32 noundef 65535)
  store i32 %9, ptr %5, align 4, !tbaa !36
  br label %10

10:                                               ; preds = %2
  br label %11

11:                                               ; preds = %10
  br label %12

12:                                               ; preds = %11
  br label %13

13:                                               ; preds = %12
  br label %14

14:                                               ; preds = %13
  br label %15

15:                                               ; preds = %14
  %16 = getelementptr inbounds nuw %"struct.std::__atomic_base", ptr %7, i32 0, i32 0
  %17 = load i32, ptr %4, align 4, !tbaa !36
  switch i32 %17, label %18 [
    i32 1, label %20
    i32 2, label %20
    i32 5, label %22
  ]

18:                                               ; preds = %15
  %19 = load atomic volatile i32, ptr %16 monotonic, align 4
  store i32 %19, ptr %6, align 4
  br label %24

20:                                               ; preds = %15, %15
  %21 = load atomic volatile i32, ptr %16 acquire, align 4
  store i32 %21, ptr %6, align 4
  br label %24

22:                                               ; preds = %15
  %23 = load atomic volatile i32, ptr %16 seq_cst, align 4
  store i32 %23, ptr %6, align 4
  br label %24

24:                                               ; preds = %22, %20, %18
  %25 = load i32, ptr %6, align 4, !tbaa !17
  call void @llvm.lifetime.end.p0(i64 4, ptr %5) #12
  ret i32 %25
}

; Function Attrs: mustprogress nounwind uwtable
define linkonce_odr noundef ptr @_ZNK4base25PersistentMemoryAllocator11shared_metaEv(ptr noundef nonnull align 8 dereferenceable(48) %0) #0 comdat align 2 {
  %2 = alloca ptr, align 8
  store ptr %0, ptr %2, align 8, !tbaa !8
  %3 = load ptr, ptr %2, align 8
  %4 = getelementptr inbounds nuw %"class.base::PersistentMemoryAllocator", ptr %3, i32 0, i32 1
  %5 = load ptr, ptr %4, align 8, !tbaa !30
  ret ptr %5
}

; Function Attrs: mustprogress uwtable
define void @_ZNK4base25PersistentMemoryAllocator13GetMemoryInfoEPNS0_10MemoryInfoE(ptr noundef nonnull align 8 dereferenceable(48) %0, ptr noundef %1) #1 align 2 {
  %3 = alloca ptr, align 8
  %4 = alloca ptr, align 8
  %5 = alloca i32, align 4
  %6 = alloca i32, align 4
  %7 = alloca i32, align 4
  store ptr %0, ptr %3, align 8, !tbaa !8
  store ptr %1, ptr %4, align 8, !tbaa !80
  %8 = load ptr, ptr %3, align 8
  call void @llvm.lifetime.start.p0(i64 4, ptr %5) #12
  call void @llvm.lifetime.start.p0(i64 4, ptr %6) #12
  %9 = getelementptr inbounds nuw %"class.base::PersistentMemoryAllocator", ptr %8, i32 0, i32 2
  %10 = load i32, ptr %9, align 8, !tbaa !24
  %11 = call noundef ptr @_ZNK4base25PersistentMemoryAllocator11shared_metaEv(ptr noundef nonnull align 8 dereferenceable(48) %8)
  %12 = getelementptr inbounds nuw %"struct.base::PersistentMemoryAllocator::SharedMetadata", ptr %11, i32 0, i32 7
  %13 = call noundef i32 @_ZNVKSt13__atomic_baseIjE4loadESt12memory_order(ptr noundef nonnull align 4 dereferenceable(4) %12, i32 noundef 0) #12
  %14 = sub i32 %10, %13
  store i32 %14, ptr %6, align 4, !tbaa !17
  call void @llvm.lifetime.start.p0(i64 4, ptr %7) #12
  store i32 16, ptr %7, align 4, !tbaa !17
  %15 = call noundef nonnull align 4 dereferenceable(4) ptr @_ZSt3maxIjERKT_S2_S2_(ptr noundef nonnull align 4 dereferenceable(4) %6, ptr noundef nonnull align 4 dereferenceable(4) %7)
  %16 = load i32, ptr %15, align 4, !tbaa !17
  call void @llvm.lifetime.end.p0(i64 4, ptr %7) #12
  call void @llvm.lifetime.end.p0(i64 4, ptr %6) #12
  store i32 %16, ptr %5, align 4, !tbaa !17
  %17 = getelementptr inbounds nuw %"class.base::PersistentMemoryAllocator", ptr %8, i32 0, i32 2
  %18 = load i32, ptr %17, align 8, !tbaa !24
  %19 = zext i32 %18 to i64
  %20 = load ptr, ptr %4, align 8, !tbaa !80
  %21 = getelementptr inbounds nuw %"struct.base::PersistentMemoryAllocator::MemoryInfo", ptr %20, i32 0, i32 0
  store i64 %19, ptr %21, align 8, !tbaa !82
  %22 = call noundef zeroext i1 @_ZNK4base25PersistentMemoryAllocator9IsCorruptEv(ptr noundef nonnull align 8 dereferenceable(48) %8)
  br i1 %22, label %23, label %24

23:                                               ; preds = %2
  br label %28

24:                                               ; preds = %2
  %25 = load i32, ptr %5, align 4, !tbaa !17
  %26 = zext i32 %25 to i64
  %27 = sub i64 %26, 16
  br label %28

28:                                               ; preds = %24, %23
  %29 = phi i64 [ 0, %23 ], [ %27, %24 ]
  %30 = load ptr, ptr %4, align 8, !tbaa !80
  %31 = getelementptr inbounds nuw %"struct.base::PersistentMemoryAllocator::MemoryInfo", ptr %30, i32 0, i32 1
  store i64 %29, ptr %31, align 8, !tbaa !84
  call void @llvm.lifetime.end.p0(i64 4, ptr %5) #12
  ret void
}

; Function Attrs: mustprogress uwtable
define void @_ZN4base25PersistentMemoryAllocator24UpdateTrackingHistogramsEv(ptr noundef nonnull align 8 dereferenceable(48) %0) #1 align 2 {
  %2 = alloca ptr, align 8
  %3 = alloca %"struct.base::PersistentMemoryAllocator::MemoryInfo", align 8
  %4 = alloca i32, align 4
  store ptr %0, ptr %2, align 8, !tbaa !8
  %5 = load ptr, ptr %2, align 8
  %6 = getelementptr inbounds nuw %"class.base::PersistentMemoryAllocator", ptr %5, i32 0, i32 7
  %7 = load ptr, ptr %6, align 8, !tbaa !51
  %8 = icmp ne ptr %7, null
  br i1 %8, label %9, label %26

9:                                                ; preds = %1
  call void @llvm.lifetime.start.p0(i64 16, ptr %3) #12
  call void @_ZNK4base25PersistentMemoryAllocator13GetMemoryInfoEPNS0_10MemoryInfoE(ptr noundef nonnull align 8 dereferenceable(48) %5, ptr noundef %3)
  call void @llvm.lifetime.start.p0(i64 4, ptr %4) #12
  %10 = getelementptr inbounds nuw %"struct.base::PersistentMemoryAllocator::MemoryInfo", ptr %3, i32 0, i32 0
  %11 = load i64, ptr %10, align 8, !tbaa !82
  %12 = getelementptr inbounds nuw %"struct.base::PersistentMemoryAllocator::MemoryInfo", ptr %3, i32 0, i32 1
  %13 = load i64, ptr %12, align 8, !tbaa !84
  %14 = sub i64 %11, %13
  %15 = mul i64 %14, 100
  %16 = getelementptr inbounds nuw %"struct.base::PersistentMemoryAllocator::MemoryInfo", ptr %3, i32 0, i32 0
  %17 = load i64, ptr %16, align 8, !tbaa !82
  %18 = udiv i64 %15, %17
  %19 = trunc i64 %18 to i32
  store i32 %19, ptr %4, align 4, !tbaa !17
  %20 = getelementptr inbounds nuw %"class.base::PersistentMemoryAllocator", ptr %5, i32 0, i32 7
  %21 = load ptr, ptr %20, align 8, !tbaa !51
  %22 = load i32, ptr %4, align 4, !tbaa !17
  %23 = load ptr, ptr %21, align 8, !tbaa !47
  %24 = getelementptr inbounds ptr, ptr %23, i64 5
  %25 = load ptr, ptr %24, align 8
  call void %25(ptr noundef nonnull align 8 dereferenceable(44) %21, i32 noundef %22)
  call void @llvm.lifetime.end.p0(i64 4, ptr %4) #12
  call void @llvm.lifetime.end.p0(i64 16, ptr %3) #12
  br label %26

26:                                               ; preds = %9, %1
  ret void
}