; Function Attrs: mustprogress uwtable
define void @_ZN4base25PersistentMemoryAllocator24UpdateTrackingHistogramsEv(ptr noundef nonnull align 8 captures(none) dereferenceable(48) %0) local_unnamed_addr #3 align 2 {
  %2 = getelementptr inbounds nuw i8, ptr %0, i64 40
  %3 = load ptr, ptr %2, align 8, !tbaa !61
  %.not = icmp eq ptr %3, null
  br i1 %.not, label %25, label %4

4:                                                ; preds = %1
  %5 = getelementptr inbounds nuw i8, ptr %0, i64 16
  %6 = load i32, ptr %5, align 8, !tbaa !13
  %7 = getelementptr inbounds nuw i8, ptr %0, i64 8
  %8 = load ptr, ptr %7, align 8, !tbaa !20
  %9 = getelementptr inbounds nuw i8, ptr %8, i64 32
  %10 = load atomic volatile i32, ptr %9 monotonic, align 4
  %11 = sub i32 %6, %10
  %.sroa.speculated.i = tail call i32 @llvm.umax.i32(i32 %11, i32 16)
  %12 = zext i32 %6 to i64
  %13 = tail call noundef zeroext i1 @_ZNK4base25PersistentMemoryAllocator9IsCorruptEv(ptr noundef nonnull align 8 dereferenceable(48) %0)
  %14 = zext i32 %.sroa.speculated.i to i64
  %15 = add nsw i64 %14, -16
  %16 = select i1 %13, i64 0, i64 %15
  %17 = sub nsw i64 %12, %16
  %18 = mul nsw i64 %17, 100
  %19 = udiv i64 %18, %12
  %20 = trunc i64 %19 to i32
  %21 = load ptr, ptr %2, align 8, !tbaa !61
  %22 = load ptr, ptr %21, align 8, !tbaa !30
  %23 = getelementptr inbounds nuw i8, ptr %22, i64 40
  %24 = load ptr, ptr %23, align 8
  tail call void %24(ptr noundef nonnull align 8 dereferenceable(44) %21, i32 noundef %20)
  br label %25

25:                                               ; preds = %4, %1
  ret void
}